; Function Attrs: mustprogress nounwind uwtable
define dso_local void @_ZN4node6timers11BindingData15SlowGetLibuvNowERKN2v820FunctionCallbackInfoINS2_5ValueEEE(ptr noundef nonnull align 8 dereferenceable(20) %args) #3 align 2 {
entry:
  %call = tail call noundef ptr @_ZN4node5Realm14GetBindingDataINS_6timers11BindingDataEEEPT_RKN2v820FunctionCallbackInfoINS6_5ValueEEE(ptr noundef nonnull align 8 dereferenceable(20) %args)
  %realm_.i.i = getelementptr inbounds i8, ptr %call, i64 16
  %0 = load ptr, ptr %realm_.i.i, align 8
  %env_.i.i.i = getelementptr inbounds i8, ptr %0, i64 176
  %1 = load ptr, ptr %env_.i.i.i, align 8
  %call1.i = tail call noundef i64 @_ZN4node11Environment12GetNowUint64Ev(ptr noundef nonnull align 8 dereferenceable(2872) %1) #15
  %conv.i = uitofp i64 %call1.i to double
  %2 = load ptr, ptr %args, align 8
  %arrayidx.i14 = getelementptr inbounds i8, ptr %2, i64 8
  %3 = load ptr, ptr %arrayidx.i14, align 8
  %call4 = tail call ptr @_ZN2v86Number3NewEPNS_7IsolateEd(ptr noundef %3, double noundef %conv.i) #15
  %cmp.i = icmp eq ptr %call4, null
  br i1 %cmp.i, label %if.then.i, label %_ZN2v811ReturnValueINS_5ValueEE3SetINS_6NumberEEEvNS_5LocalIT_EE.exit

if.then.i:                                        ; preds = %entry
  %4 = load ptr, ptr %arrayidx.i14, align 8
  %5 = ptrtoint ptr %4 to i64
  %add1.i.i = add i64 %5, 616
  %6 = inttoptr i64 %add1.i.i to ptr
  br label %_ZN2v811ReturnValueINS_5ValueEE3SetINS_6NumberEEEvNS_5LocalIT_EE.exit

_ZN2v811ReturnValueINS_5ValueEE3SetINS_6NumberEEEvNS_5LocalIT_EE.exit: ; preds = %entry, %if.then.i
  %storemerge.in = phi ptr [ %6, %if.then.i ], [ %call4, %entry ]
  %arrayidx.i = getelementptr inbounds i8, ptr %2, i64 24
  %storemerge = load i64, ptr %storemerge.in, align 8
  store i64 %storemerge, ptr %arrayidx.i, align 8
  ret void
}